target datalayout = "e-m:e-p270:32:32-p271:32:32-p272:64:64-i64:64-i128:128-f80:128-n8:16:32:64-S128"
target triple = "x86_64-pc-linux-gnu"

%union.pthread_mutex_t = type { %struct.__pthread_mutex_s }
%struct.__pthread_mutex_s = type { i32, i32, i32, i32, i32, i16, i16, %struct.__pthread_internal_list }
%struct.__pthread_internal_list = type { ptr, ptr }
%struct.settings = type { i64, i32, i32, i32, ptr, i32, i32, i32, ptr, ptr, i32, double, i32, i32, i32, i8, i32, i32, i8, i32, i32, i32, i32, i32, i32, i8, i8, i8, i8, i8, i8, i8, i32, i32, double, double, i32, i32, i8, i32, i8, i8, ptr, i32, i32, i32, i32, double, double, i32, i8, i32, i32, i32, i32, i32, i8, i8, i8, ptr, i32, i32, i32, i32, i32, i32, i32, i32, i32, i32, double, i8, i32, i32, ptr, i32 }
%struct.timeval = type { i64, i64 }
%struct.LIBEVENT_THREAD = type { i64, ptr, %struct.thread_notify, %struct.thread_notify, %union.pthread_mutex_t, %struct.iop_head_s, i32, i32, i32, %struct.thread_stats, [3 x %struct.io_queue_s], ptr, ptr, ptr, ptr, ptr, ptr, ptr, i32 }
%struct.thread_notify = type { %struct.event, i32 }
%struct.event = type { %struct.event_callback, %union.anon.0, i32, ptr, %union.anon.2, i16, i16, %struct.timeval }
%struct.event_callback = type { %struct.anon, i16, i8, i8, %union.anon, ptr }
%struct.anon = type { ptr, ptr }
%union.anon = type { ptr }
%union.anon.0 = type { %struct.anon.1 }
%struct.anon.1 = type { ptr, ptr }
%union.anon.2 = type { %struct.anon.3 }
%struct.anon.3 = type { %struct.anon.4, %struct.timeval }
%struct.anon.4 = type { ptr, ptr }
%struct.iop_head_s = type { ptr, ptr }
%struct.thread_stats = type { %union.pthread_mutex_t, i64, i64, i64, i64, i64, i64, i64, i64, i64, i64, i64, i64, i64, i64, i64, i64, i64, i64, i64, i64, i64, i64, i64, i64, i64, i64, i64, i64, i64, i64, [64 x %struct.slab_stats], [256 x i64], i64, i64, i64 }
%struct.slab_stats = type { i64, i64, i64, i64, i64, i64, i64, i64 }
%struct.io_queue_s = type { ptr, %struct.iop_head_s, ptr, i32 }
%struct._io_pending_t = type { i8, i8, i8, ptr, ptr, ptr, ptr, ptr, %struct.anon.11, [120 x i8] }
%struct.anon.11 = type { ptr }

@settings = external global %struct.settings, align 8
@stderr = external global ptr, align 8
@.str.29 = private unnamed_addr constant [31 x i8] c"Can't read from libevent pipe\0A\00", align 1

; Function Attrs: nounwind uwtable
define internal void @thread_libevent_ionotify(i32 noundef %0, i16 noundef signext %1, ptr noundef %2) #0 {
  %4 = alloca i32, align 4
  %5 = alloca i16, align 2
  %6 = alloca ptr, align 8
  %7 = alloca ptr, align 8
  %8 = alloca i64, align 8
  %9 = alloca %struct.iop_head_s, align 8
  %10 = alloca i32, align 4
  %11 = alloca ptr, align 8
  store i32 %0, ptr %4, align 4, !tbaa !4
  store i16 %1, ptr %5, align 2, !tbaa !101
  store ptr %2, ptr %6, align 8, !tbaa !8
  call void @llvm.lifetime.start.p0(i64 8, ptr %7) #8
  %12 = load ptr, ptr %6, align 8, !tbaa !8
  store ptr %12, ptr %7, align 8, !tbaa !8
  call void @llvm.lifetime.start.p0(i64 8, ptr %8) #8
  store i64 0, ptr %8, align 8, !tbaa !58
  call void @llvm.lifetime.start.p0(i64 16, ptr %9) #8
  br label %13

13:                                               ; preds = %3
  %14 = getelementptr inbounds nuw %struct.iop_head_s, ptr %9, i32 0, i32 0
  store ptr null, ptr %14, align 8, !tbaa !220
  %15 = getelementptr inbounds nuw %struct.iop_head_s, ptr %9, i32 0, i32 0
  %16 = getelementptr inbounds nuw %struct.iop_head_s, ptr %9, i32 0, i32 1
  store ptr %15, ptr %16, align 8, !tbaa !221
  br label %17

17:                                               ; preds = %13
  br label %18

18:                                               ; preds = %17
  %19 = load i32, ptr %4, align 4, !tbaa !4
  %20 = call i64 @read(i32 noundef %19, ptr noundef %8, i64 noundef 8)
  %21 = icmp ne i64 %20, 8
  br i1 %21, label %22, label %29

22:                                               ; preds = %18
  %23 = load i32, ptr getelementptr inbounds nuw (%struct.settings, ptr @settings, i32 0, i32 5), align 8, !tbaa !52
  %24 = icmp sgt i32 %23, 0
  br i1 %24, label %25, label %28

25:                                               ; preds = %22
  %26 = load ptr, ptr @stderr, align 8, !tbaa !18
  %27 = call i32 (ptr, ptr, ...) @fprintf(ptr noundef %26, ptr noundef @.str.29) #8
  br label %28

28:                                               ; preds = %25, %22
  store i32 1, ptr %10, align 4
  br label %93

29:                                               ; preds = %18
  %30 = load ptr, ptr %7, align 8, !tbaa !8
  %31 = getelementptr inbounds nuw %struct.LIBEVENT_THREAD, ptr %30, i32 0, i32 4
  %32 = call i32 @pthread_mutex_lock(ptr noundef %31) #8
  br label %33

33:                                               ; preds = %29
  %34 = load ptr, ptr %7, align 8, !tbaa !8
  %35 = getelementptr inbounds nuw %struct.LIBEVENT_THREAD, ptr %34, i32 0, i32 5
  %36 = getelementptr inbounds nuw %struct.iop_head_s, ptr %35, i32 0, i32 0
  %37 = load ptr, ptr %36, align 8, !tbaa !92
  %38 = icmp eq ptr %37, null
  br i1 %38, label %63, label %39

39:                                               ; preds = %33
  %40 = load ptr, ptr %7, align 8, !tbaa !8
  %41 = getelementptr inbounds nuw %struct.LIBEVENT_THREAD, ptr %40, i32 0, i32 5
  %42 = getelementptr inbounds nuw %struct.iop_head_s, ptr %41, i32 0, i32 0
  %43 = load ptr, ptr %42, align 8, !tbaa !92
  %44 = getelementptr inbounds nuw %struct.iop_head_s, ptr %9, i32 0, i32 1
  %45 = load ptr, ptr %44, align 8, !tbaa !221
  store ptr %43, ptr %45, align 8, !tbaa !88
  %46 = load ptr, ptr %7, align 8, !tbaa !8
  %47 = getelementptr inbounds nuw %struct.LIBEVENT_THREAD, ptr %46, i32 0, i32 5
  %48 = getelementptr inbounds nuw %struct.iop_head_s, ptr %47, i32 0, i32 1
  %49 = load ptr, ptr %48, align 8, !tbaa !94
  %50 = getelementptr inbounds nuw %struct.iop_head_s, ptr %9, i32 0, i32 1
  store ptr %49, ptr %50, align 8, !tbaa !221
  br label %51

51:                                               ; preds = %39
  %52 = load ptr, ptr %7, align 8, !tbaa !8
  %53 = getelementptr inbounds nuw %struct.LIBEVENT_THREAD, ptr %52, i32 0, i32 5
  %54 = getelementptr inbounds nuw %struct.iop_head_s, ptr %53, i32 0, i32 0
  store ptr null, ptr %54, align 8, !tbaa !92
  %55 = load ptr, ptr %7, align 8, !tbaa !8
  %56 = getelementptr inbounds nuw %struct.LIBEVENT_THREAD, ptr %55, i32 0, i32 5
  %57 = getelementptr inbounds nuw %struct.iop_head_s, ptr %56, i32 0, i32 0
  %58 = load ptr, ptr %7, align 8, !tbaa !8
  %59 = getelementptr inbounds nuw %struct.LIBEVENT_THREAD, ptr %58, i32 0, i32 5
  %60 = getelementptr inbounds nuw %struct.iop_head_s, ptr %59, i32 0, i32 1
  store ptr %57, ptr %60, align 8, !tbaa !94
  br label %61

61:                                               ; preds = %51
  br label %62

62:                                               ; preds = %61
  br label %63

63:                                               ; preds = %62, %33
  br label %64

64:                                               ; preds = %63
  br label %65

65:                                               ; preds = %64
  %66 = load ptr, ptr %7, align 8, !tbaa !8
  %67 = getelementptr inbounds nuw %struct.LIBEVENT_THREAD, ptr %66, i32 0, i32 4
  %68 = call i32 @pthread_mutex_unlock(ptr noundef %67) #8
  br label %69

69:                                               ; preds = %90, %65
  %70 = getelementptr inbounds nuw %struct.iop_head_s, ptr %9, i32 0, i32 0
  %71 = load ptr, ptr %70, align 8, !tbaa !220
  %72 = icmp eq ptr %71, null
  %73 = xor i1 %72, true
  br i1 %73, label %74, label %92

74:                                               ; preds = %69
  call void @llvm.lifetime.start.p0(i64 8, ptr %11) #8
  %75 = getelementptr inbounds nuw %struct.iop_head_s, ptr %9, i32 0, i32 0
  %76 = load ptr, ptr %75, align 8, !tbaa !220
  store ptr %76, ptr %11, align 8, !tbaa !88
  br label %77

77:                                               ; preds = %74
  %78 = getelementptr inbounds nuw %struct.iop_head_s, ptr %9, i32 0, i32 0
  %79 = load ptr, ptr %78, align 8, !tbaa !220
  %80 = getelementptr inbounds nuw %struct._io_pending_t, ptr %79, i32 0, i32 8
  %81 = getelementptr inbounds nuw %struct.anon.11, ptr %80, i32 0, i32 0
  %82 = load ptr, ptr %81, align 8, !tbaa !93
  %83 = getelementptr inbounds nuw %struct.iop_head_s, ptr %9, i32 0, i32 0
  store ptr %82, ptr %83, align 8, !tbaa !220
  %84 = icmp eq ptr %82, null
  br i1 %84, label %85, label %88

85:                                               ; preds = %77
  %86 = getelementptr inbounds nuw %struct.iop_head_s, ptr %9, i32 0, i32 0
  %87 = getelementptr inbounds nuw %struct.iop_head_s, ptr %9, i32 0, i32 1
  store ptr %86, ptr %87, align 8, !tbaa !221
  br label %88

88:                                               ; preds = %85, %77
  br label %89

89:                                               ; preds = %88
  br label %90

90:                                               ; preds = %89
  %91 = load ptr, ptr %11, align 8, !tbaa !88
  call void @conn_io_queue_return(ptr noundef %91)
  call void @llvm.lifetime.end.p0(i64 8, ptr %11) #8
  br label %69, !llvm.loop !222

92:                                               ; preds = %69
  store i32 0, ptr %10, align 4
  br label %93

93:                                               ; preds = %92, %28
  call void @llvm.lifetime.end.p0(i64 16, ptr %9) #8
  call void @llvm.lifetime.end.p0(i64 8, ptr %8) #8
  call void @llvm.lifetime.end.p0(i64 8, ptr %7) #8
  %94 = load i32, ptr %10, align 4
  switch i32 %94, label %96 [
    i32 0, label %95
    i32 1, label %95
  ]

95:                                               ; preds = %93, %93
  ret void

96:                                               ; preds = %93
  unreachable
}