; Function Attrs: nounwind uwtable
define internal void @thread_libevent_ionotify(i32 noundef %0, i16 signext %1, ptr noundef %2) #0 {
  %4 = alloca i64, align 8
  %5 = alloca %struct.iop_head_s, align 8
  call void @llvm.lifetime.start.p0(i64 8, ptr nonnull %4) #15
  store i64 0, ptr %4, align 8, !tbaa !57
  call void @llvm.lifetime.start.p0(i64 16, ptr nonnull %5) #15
  store ptr null, ptr %5, align 8, !tbaa !203
  %6 = getelementptr inbounds nuw i8, ptr %5, i64 8
  store ptr %5, ptr %6, align 8, !tbaa !204
  %7 = call i64 @read(i32 noundef %0, ptr noundef nonnull %4, i64 noundef 8) #15
  %.not = icmp eq i64 %7, 8
  br i1 %.not, label %14, label %8

8:                                                ; preds = %3
  %9 = load i32, ptr getelementptr inbounds nuw (i8, ptr @settings, i64 32), align 8, !tbaa !59
  %10 = icmp sgt i32 %9, 0
  br i1 %10, label %11, label %.loopexit

11:                                               ; preds = %8
  %12 = load ptr, ptr @stderr, align 8, !tbaa !18
  %13 = call i64 @fwrite(ptr nonnull @.str.29, i64 30, i64 1, ptr %12) #17
  br label %.loopexit

14:                                               ; preds = %3
  %15 = getelementptr inbounds nuw i8, ptr %2, i64 288
  %16 = call i32 @pthread_mutex_lock(ptr noundef nonnull %15) #15
  %17 = getelementptr inbounds nuw i8, ptr %2, i64 328
  %18 = load ptr, ptr %17, align 8, !tbaa !90
  %19 = icmp eq ptr %18, null
  br i1 %19, label %24, label %20

20:                                               ; preds = %14
  %21 = load ptr, ptr %6, align 8, !tbaa !204
  store ptr %18, ptr %21, align 8, !tbaa !93
  %22 = getelementptr inbounds nuw i8, ptr %2, i64 336
  %23 = load ptr, ptr %22, align 8, !tbaa !92
  store ptr %23, ptr %6, align 8, !tbaa !204
  store ptr null, ptr %17, align 8, !tbaa !90
  store ptr %17, ptr %22, align 8, !tbaa !92
  br label %24

24:                                               ; preds = %20, %14
  %25 = call i32 @pthread_mutex_unlock(ptr noundef nonnull %15) #15
  %26 = load ptr, ptr %5, align 8, !tbaa !203
  %.not1011 = icmp eq ptr %26, null
  br i1 %.not1011, label %.loopexit, label %.lr.ph

.lr.ph:                                           ; preds = %24, %32
  %27 = phi ptr [ %33, %32 ], [ %26, %24 ]
  %28 = getelementptr inbounds nuw i8, ptr %27, i64 48
  %29 = load ptr, ptr %28, align 8, !tbaa !91
  store ptr %29, ptr %5, align 8, !tbaa !203
  %30 = icmp eq ptr %29, null
  br i1 %30, label %31, label %32

31:                                               ; preds = %.lr.ph
  store ptr %5, ptr %6, align 8, !tbaa !204
  br label %32

32:                                               ; preds = %31, %.lr.ph
  call void @conn_io_queue_return(ptr noundef nonnull %27) #15
  %33 = load ptr, ptr %5, align 8, !tbaa !203
  %.not10 = icmp eq ptr %33, null
  br i1 %.not10, label %.loopexit, label %.lr.ph, !llvm.loop !205

.loopexit:                                        ; preds = %32, %24, %8, %11
  call void @llvm.lifetime.end.p0(i64 16, ptr nonnull %5) #15
  call void @llvm.lifetime.end.p0(i64 8, ptr nonnull %4) #15
  ret void
}